target datalayout = "e-m:e-p270:32:32-p271:32:32-p272:64:64-i64:64-i128:128-f80:128-n8:16:32:64-S128"
target triple = "x86_64-pc-linux-gnu"

; Function Attrs: nounwind uwtable
define void @Cba_BlastShiftLeft(ptr noundef %0, ptr noundef %1, i32 noundef %2, ptr noundef %3, i32 noundef %4, i32 noundef %5, ptr noundef %6) #0 {
  %8 = alloca ptr, align 8
  %9 = alloca ptr, align 8
  %10 = alloca i32, align 4
  %11 = alloca ptr, align 8
  %12 = alloca i32, align 4
  %13 = alloca i32, align 4
  %14 = alloca ptr, align 8
  %15 = alloca ptr, align 8
  %16 = alloca i32, align 4
  %17 = alloca i32, align 4
  %18 = alloca i32, align 4
  %19 = alloca i32, align 4
  store ptr %0, ptr %8, align 8
  store ptr %1, ptr %9, align 8
  store i32 %2, ptr %10, align 4
  store ptr %3, ptr %11, align 8
  store i32 %4, ptr %12, align 4
  store i32 %5, ptr %13, align 4
  store ptr %6, ptr %14, align 8
  %20 = load ptr, ptr %14, align 8
  %21 = load ptr, ptr %9, align 8
  %22 = load i32, ptr %10, align 4
  %23 = call ptr @Cba_VecCopy(ptr noundef %20, ptr noundef %21, i32 noundef %22)
  store ptr %23, ptr %15, align 8
  %24 = load i32, ptr %13, align 4
  %25 = icmp ne i32 %24, 0
  br i1 %25, label %26, label %30

26:                                               ; preds = %7
  %27 = load ptr, ptr %9, align 8
  %28 = getelementptr inbounds i32, ptr %27, i64 0
  %29 = load i32, ptr %28, align 4
  br label %31

30:                                               ; preds = %7
  br label %31

31:                                               ; preds = %30, %26
  %32 = phi i32 [ %29, %26 ], [ 0, %30 ]
  store i32 %32, ptr %16, align 4
  store i32 0, ptr %19, align 4
  %33 = load i32, ptr %12, align 4
  %34 = icmp sgt i32 %33, 32
  br i1 %34, label %35, label %36

35:                                               ; preds = %31
  store i32 32, ptr %12, align 4
  br label %36

36:                                               ; preds = %35, %31
  store i32 0, ptr %17, align 4
  br label %37

37:                                               ; preds = %110, %36
  %38 = load i32, ptr %17, align 4
  %39 = load i32, ptr %12, align 4
  %40 = icmp slt i32 %38, %39
  br i1 %40, label %41, label %113

41:                                               ; preds = %37
  %42 = load i32, ptr %10, align 4
  %43 = sub nsw i32 %42, 1
  store i32 %43, ptr %18, align 4
  br label %44

44:                                               ; preds = %106, %41
  %45 = load i32, ptr %18, align 4
  %46 = load i32, ptr %13, align 4
  %47 = icmp sge i32 %45, %46
  br i1 %47, label %48, label %109

48:                                               ; preds = %44
  %49 = load i32, ptr %19, align 4
  %50 = icmp ne i32 %49, 0
  br i1 %50, label %56, label %51

51:                                               ; preds = %48
  %52 = load i32, ptr %17, align 4
  %53 = shl i32 1, %52
  %54 = load i32, ptr %18, align 4
  %55 = icmp sgt i32 %53, %54
  br i1 %55, label %56, label %80

56:                                               ; preds = %51, %48
  %57 = load ptr, ptr %8, align 8
  %58 = load ptr, ptr %11, align 8
  %59 = load i32, ptr %17, align 4
  %60 = sext i32 %59 to i64
  %61 = getelementptr inbounds i32, ptr %58, i64 %60
  %62 = load i32, ptr %61, align 4
  %63 = load i32, ptr %16, align 4
  %64 = load ptr, ptr %15, align 8
  %65 = load i32, ptr %18, align 4
  %66 = sext i32 %65 to i64
  %67 = getelementptr inbounds i32, ptr %64, i64 %66
  %68 = load i32, ptr %67, align 4
  %69 = call i32 @Gia_ManHashMux(ptr noundef %57, i32 noundef %62, i32 noundef %63, i32 noundef %68)
  %70 = load ptr, ptr %15, align 8
  %71 = load i32, ptr %18, align 4
  %72 = sext i32 %71 to i64
  %73 = getelementptr inbounds i32, ptr %70, i64 %72
  store i32 %69, ptr %73, align 4
  %74 = load i32, ptr %17, align 4
  %75 = shl i32 1, %74
  %76 = load i32, ptr %10, align 4
  %77 = icmp sgt i32 %75, %76
  br i1 %77, label %78, label %79

78:                                               ; preds = %56
  store i32 1, ptr %19, align 4
  br label %79

79:                                               ; preds = %78, %56
  br label %105

80:                                               ; preds = %51
  %81 = load ptr, ptr %8, align 8
  %82 = load ptr, ptr %11, align 8
  %83 = load i32, ptr %17, align 4
  %84 = sext i32 %83 to i64
  %85 = getelementptr inbounds i32, ptr %82, i64 %84
  %86 = load i32, ptr %85, align 4
  %87 = load ptr, ptr %15, align 8
  %88 = load i32, ptr %18, align 4
  %89 = load i32, ptr %17, align 4
  %90 = shl i32 1, %89
  %91 = sub nsw i32 %88, %90
  %92 = sext i32 %91 to i64
  %93 = getelementptr inbounds i32, ptr %87, i64 %92
  %94 = load i32, ptr %93, align 4
  %95 = load ptr, ptr %15, align 8
  %96 = load i32, ptr %18, align 4
  %97 = sext i32 %96 to i64
  %98 = getelementptr inbounds i32, ptr %95, i64 %97
  %99 = load i32, ptr %98, align 4
  %100 = call i32 @Gia_ManHashMux(ptr noundef %81, i32 noundef %86, i32 noundef %94, i32 noundef %99)
  %101 = load ptr, ptr %15, align 8
  %102 = load i32, ptr %18, align 4
  %103 = sext i32 %102 to i64
  %104 = getelementptr inbounds i32, ptr %101, i64 %103
  store i32 %100, ptr %104, align 4
  br label %105

105:                                              ; preds = %80, %79
  br label %106

106:                                              ; preds = %105
  %107 = load i32, ptr %18, align 4
  %108 = add nsw i32 %107, -1
  store i32 %108, ptr %18, align 4
  br label %44, !llvm.loop !17

109:                                              ; preds = %44
  br label %110

110:                                              ; preds = %109
  %111 = load i32, ptr %17, align 4
  %112 = add nsw i32 %111, 1
  store i32 %112, ptr %17, align 4
  br label %37, !llvm.loop !18

113:                                              ; preds = %37
  ret void
}