; Function Attrs: nounwind uwtable
define void @Cba_BlastShiftLeft(ptr noundef %0, ptr noundef readonly captures(none) %1, i32 noundef %2, ptr noundef readonly captures(none) %3, i32 noundef %4, i32 noundef %5, ptr noundef captures(none) initializes((4, 8)) %6) local_unnamed_addr #0 {
  %8 = tail call ptr @Cba_VecCopy(ptr noundef %6, ptr noundef %1, i32 noundef %2)
  %.not = icmp eq i32 %5, 0
  br i1 %.not, label %11, label %9

9:                                                ; preds = %7
  %10 = load i32, ptr %1, align 4
  br label %11

11:                                               ; preds = %7, %9
  %12 = phi i32 [ %10, %9 ], [ 0, %7 ]
  %13 = icmp sgt i32 %4, 0
  %.not38.not42 = icmp sgt i32 %2, %5
  %or.cond71 = and i1 %13, %.not38.not42
  br i1 %or.cond71, label %.preheader.us.preheader, label %._crit_edge48

.preheader.us.preheader:                          ; preds = %11
  %spec.store.select = tail call i32 @llvm.smin.i32(i32 %4, i32 32)
  %14 = sext i32 %2 to i64
  %15 = add nsw i64 %14, -1
  %16 = sext i32 %5 to i64
  %wide.trip.count = zext nneg i32 %spec.store.select to i64
  br label %.preheader.us

.preheader.us:                                    ; preds = %.preheader.us.preheader, %._crit_edge.us
  %indvars.iv67 = phi i64 [ 0, %.preheader.us.preheader ], [ %indvars.iv.next68, %._crit_edge.us ]
  %.047.us = phi i32 [ 0, %.preheader.us.preheader ], [ %.us-phi.us, %._crit_edge.us ]
  %17 = trunc nuw nsw i64 %indvars.iv67 to i32
  %18 = shl nuw i32 1, %17
  %.fr = freeze i32 %18
  %19 = getelementptr inbounds nuw i32, ptr %3, i64 %indvars.iv67
  %20 = icmp sgt i32 %.fr, %2
  %21 = sext i32 %.fr to i64
  br i1 %20, label %.lr.ph.split.us.us, label %.lr.ph.split.us59.preheader

.lr.ph.split.us59.preheader:                      ; preds = %.preheader.us
  %.not39.us52 = icmp eq i32 %.047.us, 0
  br label %.lr.ph.split.us59

.lr.ph.split.us59:                                ; preds = %.lr.ph.split.us59.preheader, %27
  %indvars.iv = phi i64 [ %15, %.lr.ph.split.us59.preheader ], [ %indvars.iv.next, %27 ]
  %.035.in43.us51 = phi i32 [ %2, %.lr.ph.split.us59.preheader ], [ %31, %27 ]
  %.not40.us53 = icmp slt i32 %.fr, %.035.in43.us51
  %or.cond = select i1 %.not39.us52, i1 %.not40.us53, i1 false
  %22 = load i32, ptr %19, align 4
  br i1 %or.cond, label %23, label %27

23:                                               ; preds = %.lr.ph.split.us59
  %24 = sub nsw i64 %indvars.iv, %21
  %25 = getelementptr inbounds i32, ptr %8, i64 %24
  %26 = load i32, ptr %25, align 4
  br label %27

27:                                               ; preds = %.lr.ph.split.us59, %23
  %.sink73 = phi i32 [ %26, %23 ], [ %12, %.lr.ph.split.us59 ]
  %28 = getelementptr inbounds i32, ptr %8, i64 %indvars.iv
  %29 = load i32, ptr %28, align 4
  %30 = tail call i32 @Gia_ManHashMux(ptr noundef %0, i32 noundef %22, i32 noundef %.sink73, i32 noundef %29) #20
  store i32 %30, ptr %28, align 4
  %indvars.iv.next = add nsw i64 %indvars.iv, -1
  %.not38.not.us56 = icmp sgt i64 %indvars.iv, %16
  %31 = trunc nsw i64 %indvars.iv to i32
  br i1 %.not38.not.us56, label %.lr.ph.split.us59, label %._crit_edge.us, !llvm.loop !17

._crit_edge.us:                                   ; preds = %27, %37
  %.us-phi.us = phi i32 [ %.2.us.us, %37 ], [ %.047.us, %27 ]
  %indvars.iv.next68 = add nuw nsw i64 %indvars.iv67, 1
  %exitcond.not = icmp eq i64 %indvars.iv.next68, %wide.trip.count
  br i1 %exitcond.not, label %._crit_edge48, label %.preheader.us, !llvm.loop !18

.lr.ph.split.us.us:                               ; preds = %.preheader.us, %37
  %indvars.iv64 = phi i64 [ %indvars.iv.next65, %37 ], [ %15, %.preheader.us ]
  %.144.us.us = phi i32 [ %.2.us.us, %37 ], [ %.047.us, %.preheader.us ]
  %.035.in43.us.us = phi i32 [ %41, %37 ], [ %2, %.preheader.us ]
  %.not39.us.us = icmp eq i32 %.144.us.us, 0
  %.not40.us.us = icmp slt i32 %.fr, %.035.in43.us.us
  %or.cond60 = select i1 %.not39.us.us, i1 %.not40.us.us, i1 false
  %32 = load i32, ptr %19, align 4
  br i1 %or.cond60, label %33, label %37

33:                                               ; preds = %.lr.ph.split.us.us
  %34 = sub nsw i64 %indvars.iv64, %21
  %35 = getelementptr inbounds i32, ptr %8, i64 %34
  %36 = load i32, ptr %35, align 4
  br label %37

37:                                               ; preds = %.lr.ph.split.us.us, %33
  %.sink76 = phi i32 [ %36, %33 ], [ %12, %.lr.ph.split.us.us ]
  %.2.us.us = phi i32 [ 0, %33 ], [ 1, %.lr.ph.split.us.us ]
  %38 = getelementptr inbounds i32, ptr %8, i64 %indvars.iv64
  %39 = load i32, ptr %38, align 4
  %40 = tail call i32 @Gia_ManHashMux(ptr noundef %0, i32 noundef %32, i32 noundef %.sink76, i32 noundef %39) #20
  store i32 %40, ptr %38, align 4
  %indvars.iv.next65 = add nsw i64 %indvars.iv64, -1
  %.not38.not.us.us = icmp sgt i64 %indvars.iv64, %16
  %41 = trunc nsw i64 %indvars.iv64 to i32
  br i1 %.not38.not.us.us, label %.lr.ph.split.us.us, label %._crit_edge.us, !llvm.loop !17

._crit_edge48:                                    ; preds = %._crit_edge.us, %11
  ret void
}